; Function Attrs: nounwind uwtable
define hidden void @phpdbg_clean(i1 noundef zeroext %0, i1 noundef zeroext %1) local_unnamed_addr #0 {
  %3 = load ptr, ptr getelementptr inbounds (%struct._zend_phpdbg_globals, ptr @phpdbg_globals, i64 0, i32 26), align 8
  %.not4 = icmp eq ptr %3, null
  br i1 %.not4, label %6, label %4

4:                                                ; preds = %2
  tail call void @destroy_op_array(ptr noundef nonnull %3) #24
  %5 = load ptr, ptr getelementptr inbounds (%struct._zend_phpdbg_globals, ptr @phpdbg_globals, i64 0, i32 26), align 8
  tail call void @_efree(ptr noundef %5) #24
  store ptr null, ptr getelementptr inbounds (%struct._zend_phpdbg_globals, ptr @phpdbg_globals, i64 0, i32 26), align 8
  br label %6

6:                                                ; preds = %4, %2
  %7 = load ptr, ptr getelementptr inbounds (%struct._zend_phpdbg_globals, ptr @phpdbg_globals, i64 0, i32 7), align 8
  %8 = icmp eq ptr %7, null
  %or.cond.not = select i1 %1, i1 true, i1 %8
  br i1 %or.cond.not, label %10, label %9

9:                                                ; preds = %6
  tail call void @free(ptr noundef nonnull %7) #24
  store ptr null, ptr getelementptr inbounds (%struct._zend_phpdbg_globals, ptr @phpdbg_globals, i64 0, i32 7), align 8
  br label %10

10:                                               ; preds = %9, %6
  br i1 %0, label %11, label %14

11:                                               ; preds = %10
  %12 = load i64, ptr getelementptr inbounds (%struct._zend_phpdbg_globals, ptr @phpdbg_globals, i64 0, i32 53), align 8
  %13 = or i64 %12, 262144
  store i64 %13, ptr getelementptr inbounds (%struct._zend_phpdbg_globals, ptr @phpdbg_globals, i64 0, i32 53), align 8
  br label %14

14:                                               ; preds = %11, %10
  ret void
}